target datalayout = "e-m:e-p270:32:32-p271:32:32-p272:64:64-i64:64-i128:128-f80:128-n8:16:32:64-S128"
target triple = "x86_64-pc-linux-gnu"

%struct.CK_ATTRIBUTE = type { i64, ptr, i64 }

; Function Attrs: nounwind uwtable
define hidden ptr @ckAttributeValueToJObject(ptr noundef %0, ptr noundef %1) #0 {
  %3 = alloca ptr, align 8
  %4 = alloca ptr, align 8
  %5 = alloca ptr, align 8
  %6 = alloca i32, align 4
  %7 = alloca ptr, align 8
  store ptr %0, ptr %4, align 8
  store ptr %1, ptr %5, align 8
  store ptr null, ptr %7, align 8
  %8 = load ptr, ptr %5, align 8
  %9 = getelementptr inbounds %struct.CK_ATTRIBUTE, ptr %8, i32 0, i32 2
  %10 = load i64, ptr %9, align 8
  %11 = trunc i64 %10 to i32
  store i32 %11, ptr %6, align 4
  %12 = load i32, ptr %6, align 4
  %13 = icmp sle i32 %12, 0
  br i1 %13, label %19, label %14

14:                                               ; preds = %2
  %15 = load ptr, ptr %5, align 8
  %16 = getelementptr inbounds %struct.CK_ATTRIBUTE, ptr %15, i32 0, i32 1
  %17 = load ptr, ptr %16, align 8
  %18 = icmp eq ptr %17, null
  br i1 %18, label %19, label %20

19:                                               ; preds = %14, %2
  store ptr null, ptr %3, align 8
  br label %96

20:                                               ; preds = %14
  %21 = load ptr, ptr %5, align 8
  %22 = getelementptr inbounds %struct.CK_ATTRIBUTE, ptr %21, i32 0, i32 0
  %23 = load i64, ptr %22, align 8
  switch i64 %23, label %86 [
    i64 0, label %24
    i64 256, label %24
    i64 128, label %24
    i64 768, label %24
    i64 289, label %24
    i64 352, label %24
    i64 353, label %24
    i64 358, label %24
    i64 307, label %24
    i64 308, label %24
    i64 17, label %30
    i64 18, label %30
    i64 257, label %30
    i64 258, label %30
    i64 129, label %30
    i64 130, label %30
    i64 132, label %30
    i64 131, label %30
    i64 133, label %30
    i64 384, label %30
    i64 385, label %30
    i64 291, label %30
    i64 292, label %30
    i64 293, label %30
    i64 294, label %30
    i64 295, label %30
    i64 296, label %30
    i64 769, label %38
    i64 770, label %38
    i64 1, label %38
    i64 2, label %38
    i64 368, label %38
    i64 268, label %38
    i64 355, label %38
    i64 260, label %38
    i64 266, label %38
    i64 267, label %38
    i64 262, label %38
    i64 259, label %38
    i64 512, label %38
    i64 261, label %38
    i64 264, label %38
    i64 265, label %38
    i64 263, label %38
    i64 354, label %38
    i64 357, label %38
    i64 356, label %38
    i64 134, label %38
    i64 3, label %44
    i64 16, label %44
    i64 272, label %52
    i64 273, label %52
    i64 288, label %58
    i64 290, label %58
    i64 304, label %58
    i64 305, label %58
    i64 306, label %58
    i64 513, label %66
    i64 2147483648, label %72
    i64 3461571416, label %80
    i64 3461571417, label %80
    i64 3461571418, label %80
    i64 3461571419, label %80
  ]

24:                                               ; preds = %20, %20, %20, %20, %20, %20, %20, %20, %20, %20
  %25 = load ptr, ptr %4, align 8
  %26 = load ptr, ptr %5, align 8
  %27 = getelementptr inbounds %struct.CK_ATTRIBUTE, ptr %26, i32 0, i32 1
  %28 = load ptr, ptr %27, align 8
  %29 = call ptr @ckULongPtrToJLongObject(ptr noundef %25, ptr noundef %28)
  store ptr %29, ptr %7, align 8
  br label %94

30:                                               ; preds = %20, %20, %20, %20, %20, %20, %20, %20, %20, %20, %20, %20, %20, %20, %20, %20, %20
  %31 = load ptr, ptr %4, align 8
  %32 = load ptr, ptr %5, align 8
  %33 = getelementptr inbounds %struct.CK_ATTRIBUTE, ptr %32, i32 0, i32 1
  %34 = load ptr, ptr %33, align 8
  %35 = load i32, ptr %6, align 4
  %36 = sext i32 %35 to i64
  %37 = call ptr @ckByteArrayToJByteArray(ptr noundef %31, ptr noundef %34, i64 noundef %36)
  store ptr %37, ptr %7, align 8
  br label %94

38:                                               ; preds = %20, %20, %20, %20, %20, %20, %20, %20, %20, %20, %20, %20, %20, %20, %20, %20, %20, %20, %20, %20, %20
  %39 = load ptr, ptr %4, align 8
  %40 = load ptr, ptr %5, align 8
  %41 = getelementptr inbounds %struct.CK_ATTRIBUTE, ptr %40, i32 0, i32 1
  %42 = load ptr, ptr %41, align 8
  %43 = call ptr @ckBBoolPtrToJBooleanObject(ptr noundef %39, ptr noundef %42)
  store ptr %43, ptr %7, align 8
  br label %94

44:                                               ; preds = %20, %20
  %45 = load ptr, ptr %4, align 8
  %46 = load ptr, ptr %5, align 8
  %47 = getelementptr inbounds %struct.CK_ATTRIBUTE, ptr %46, i32 0, i32 1
  %48 = load ptr, ptr %47, align 8
  %49 = load i32, ptr %6, align 4
  %50 = sext i32 %49 to i64
  %51 = call ptr @ckUTF8CharArrayToJCharArray(ptr noundef %45, ptr noundef %48, i64 noundef %50)
  store ptr %51, ptr %7, align 8
  br label %94

52:                                               ; preds = %20, %20
  %53 = load ptr, ptr %4, align 8
  %54 = load ptr, ptr %5, align 8
  %55 = getelementptr inbounds %struct.CK_ATTRIBUTE, ptr %54, i32 0, i32 1
  %56 = load ptr, ptr %55, align 8
  %57 = call ptr @ckDatePtrToJDateObject(ptr noundef %53, ptr noundef %56)
  store ptr %57, ptr %7, align 8
  br label %94

58:                                               ; preds = %20, %20, %20, %20, %20
  %59 = load ptr, ptr %4, align 8
  %60 = load ptr, ptr %5, align 8
  %61 = getelementptr inbounds %struct.CK_ATTRIBUTE, ptr %60, i32 0, i32 1
  %62 = load ptr, ptr %61, align 8
  %63 = load i32, ptr %6, align 4
  %64 = sext i32 %63 to i64
  %65 = call ptr @ckByteArrayToJByteArray(ptr noundef %59, ptr noundef %62, i64 noundef %64)
  store ptr %65, ptr %7, align 8
  br label %94

66:                                               ; preds = %20
  %67 = load ptr, ptr %4, align 8
  %68 = load ptr, ptr %5, align 8
  %69 = getelementptr inbounds %struct.CK_ATTRIBUTE, ptr %68, i32 0, i32 1
  %70 = load ptr, ptr %69, align 8
  %71 = call ptr @ckULongPtrToJLongObject(ptr noundef %67, ptr noundef %70)
  store ptr %71, ptr %7, align 8
  br label %94

72:                                               ; preds = %20
  %73 = load ptr, ptr %4, align 8
  %74 = load ptr, ptr %5, align 8
  %75 = getelementptr inbounds %struct.CK_ATTRIBUTE, ptr %74, i32 0, i32 1
  %76 = load ptr, ptr %75, align 8
  %77 = load i32, ptr %6, align 4
  %78 = sext i32 %77 to i64
  %79 = call ptr @ckByteArrayToJByteArray(ptr noundef %73, ptr noundef %76, i64 noundef %78)
  store ptr %79, ptr %7, align 8
  br label %94

80:                                               ; preds = %20, %20, %20, %20
  %81 = load ptr, ptr %4, align 8
  %82 = load ptr, ptr %5, align 8
  %83 = getelementptr inbounds %struct.CK_ATTRIBUTE, ptr %82, i32 0, i32 1
  %84 = load ptr, ptr %83, align 8
  %85 = call ptr @ckULongPtrToJLongObject(ptr noundef %81, ptr noundef %84)
  store ptr %85, ptr %7, align 8
  br label %94

86:                                               ; preds = %20
  %87 = load ptr, ptr %4, align 8
  %88 = load ptr, ptr %5, align 8
  %89 = getelementptr inbounds %struct.CK_ATTRIBUTE, ptr %88, i32 0, i32 1
  %90 = load ptr, ptr %89, align 8
  %91 = load i32, ptr %6, align 4
  %92 = sext i32 %91 to i64
  %93 = call ptr @ckByteArrayToJByteArray(ptr noundef %87, ptr noundef %90, i64 noundef %92)
  store ptr %93, ptr %7, align 8
  br label %94

94:                                               ; preds = %86, %80, %72, %66, %58, %52, %44, %38, %30, %24
  %95 = load ptr, ptr %7, align 8
  store ptr %95, ptr %3, align 8
  br label %96

96:                                               ; preds = %94, %19
  %97 = load ptr, ptr %3, align 8
  ret ptr %97
}