; Function Attrs: nounwind uwtable
define hidden ptr @ckAttributeValueToJObject(ptr noundef %0, ptr nocapture noundef readonly %1) local_unnamed_addr #0 {
  %3 = getelementptr inbounds i8, ptr %1, i64 16
  %4 = load i64, ptr %3, align 8
  %5 = trunc i64 %4 to i32
  %6 = icmp slt i32 %5, 1
  br i1 %6, label %38, label %7

7:                                                ; preds = %2
  %8 = getelementptr inbounds i8, ptr %1, i64 8
  %9 = load ptr, ptr %8, align 8
  %10 = icmp eq ptr %9, null
  br i1 %10, label %38, label %11

11:                                               ; preds = %7
  %12 = load i64, ptr %1, align 8
  switch i64 %12, label %35 [
    i64 0, label %13
    i64 256, label %13
    i64 128, label %13
    i64 768, label %13
    i64 289, label %13
    i64 352, label %13
    i64 353, label %13
    i64 358, label %13
    i64 307, label %13
    i64 308, label %13
    i64 17, label %15
    i64 18, label %15
    i64 257, label %15
    i64 258, label %15
    i64 129, label %15
    i64 130, label %15
    i64 132, label %15
    i64 131, label %15
    i64 133, label %15
    i64 384, label %15
    i64 385, label %15
    i64 291, label %15
    i64 292, label %15
    i64 293, label %15
    i64 294, label %15
    i64 295, label %15
    i64 296, label %15
    i64 769, label %18
    i64 770, label %18
    i64 1, label %18
    i64 2, label %18
    i64 368, label %18
    i64 268, label %18
    i64 355, label %18
    i64 260, label %18
    i64 266, label %18
    i64 267, label %18
    i64 262, label %18
    i64 259, label %18
    i64 512, label %18
    i64 261, label %18
    i64 264, label %18
    i64 265, label %18
    i64 263, label %18
    i64 354, label %18
    i64 357, label %18
    i64 356, label %18
    i64 134, label %18
    i64 3, label %20
    i64 16, label %20
    i64 272, label %23
    i64 273, label %23
    i64 288, label %25
    i64 290, label %25
    i64 304, label %25
    i64 305, label %25
    i64 306, label %25
    i64 513, label %28
    i64 2147483648, label %30
    i64 3461571416, label %33
    i64 3461571417, label %33
    i64 3461571418, label %33
    i64 3461571419, label %33
  ]

13:                                               ; preds = %11, %11, %11, %11, %11, %11, %11, %11, %11, %11
  %14 = tail call ptr @ckULongPtrToJLongObject(ptr noundef %0, ptr noundef nonnull %9) #8
  br label %38

15:                                               ; preds = %11, %11, %11, %11, %11, %11, %11, %11, %11, %11, %11, %11, %11, %11, %11, %11, %11
  %16 = and i64 %4, 2147483647
  %17 = tail call ptr @ckByteArrayToJByteArray(ptr noundef %0, ptr noundef nonnull %9, i64 noundef %16) #8
  br label %38

18:                                               ; preds = %11, %11, %11, %11, %11, %11, %11, %11, %11, %11, %11, %11, %11, %11, %11, %11, %11, %11, %11, %11, %11
  %19 = tail call ptr @ckBBoolPtrToJBooleanObject(ptr noundef %0, ptr noundef nonnull %9) #8
  br label %38

20:                                               ; preds = %11, %11
  %21 = and i64 %4, 2147483647
  %22 = tail call ptr @ckUTF8CharArrayToJCharArray(ptr noundef %0, ptr noundef nonnull %9, i64 noundef %21) #8
  br label %38

23:                                               ; preds = %11, %11
  %24 = tail call ptr @ckDatePtrToJDateObject(ptr noundef %0, ptr noundef nonnull %9)
  br label %38

25:                                               ; preds = %11, %11, %11, %11, %11
  %26 = and i64 %4, 2147483647
  %27 = tail call ptr @ckByteArrayToJByteArray(ptr noundef %0, ptr noundef nonnull %9, i64 noundef %26) #8
  br label %38

28:                                               ; preds = %11
  %29 = tail call ptr @ckULongPtrToJLongObject(ptr noundef %0, ptr noundef nonnull %9) #8
  br label %38

30:                                               ; preds = %11
  %31 = and i64 %4, 2147483647
  %32 = tail call ptr @ckByteArrayToJByteArray(ptr noundef %0, ptr noundef nonnull %9, i64 noundef %31) #8
  br label %38

33:                                               ; preds = %11, %11, %11, %11
  %34 = tail call ptr @ckULongPtrToJLongObject(ptr noundef %0, ptr noundef nonnull %9) #8
  br label %38

35:                                               ; preds = %11
  %36 = and i64 %4, 2147483647
  %37 = tail call ptr @ckByteArrayToJByteArray(ptr noundef %0, ptr noundef nonnull %9, i64 noundef %36) #8
  br label %38

38:                                               ; preds = %13, %15, %18, %20, %23, %25, %28, %30, %33, %35, %2, %7
  %.030 = phi ptr [ null, %7 ], [ null, %2 ], [ %37, %35 ], [ %34, %33 ], [ %32, %30 ], [ %29, %28 ], [ %27, %25 ], [ %24, %23 ], [ %22, %20 ], [ %19, %18 ], [ %17, %15 ], [ %14, %13 ]
  ret ptr %.030
}